; Function Attrs: mustprogress nofree norecurse nosync nounwind willreturn memory(argmem: readwrite) uwtable
define dso_local { i64, ptr } @jv_copy(i64 %0, ptr %1) local_unnamed_addr #5 {
  %3 = and i64 %0, 128
  %.not = icmp eq i64 %3, 0
  br i1 %.not, label %7, label %4

4:                                                ; preds = %2
  %5 = load i32, ptr %1, align 4, !tbaa !9
  %6 = add nsw i32 %5, 1
  store i32 %6, ptr %1, align 4, !tbaa !9
  br label %7

7:                                                ; preds = %4, %2
  %.fca.0.insert = insertvalue { i64, ptr } poison, i64 %0, 0
  %.fca.1.insert = insertvalue { i64, ptr } %.fca.0.insert, ptr %1, 1
  ret { i64, ptr } %.fca.1.insert
}